target datalayout = "e-m:e-p270:32:32-p271:32:32-p272:64:64-i64:64-i128:128-f80:128-n8:16:32:64-S128"
target triple = "x86_64-pc-linux-gnu"

%struct.AVFilterContext = type { ptr, ptr, ptr, ptr, ptr, i32, ptr, ptr, i32, ptr, ptr, i32, i32, ptr, ptr, ptr, ptr, i32, ptr, i32, i32 }
%struct.SSIMContext = type { ptr, %struct.FFFrameSync, ptr, ptr, i32, i32, i32, i64, [4 x double], double, [4 x i8], [4 x double], [4 x i8], [4 x i32], [4 x i32], ptr, i32, ptr, ptr, %struct.SSIMDSPContext }
%struct.FFFrameSync = type { ptr, ptr, i32, %struct.AVRational, i64, ptr, ptr, i32, i32, i8, i8, ptr, i32, i32, i32, i32 }
%struct.AVRational = type { i32, i32 }
%struct.SSIMDSPContext = type { ptr, ptr }

@.str.12 = private unnamed_addr constant [2 x i8] c"-\00", align 1
@stdout = external global ptr, align 8
@.str.13 = private unnamed_addr constant [2 x i8] c"w\00", align 1
@.str.14 = private unnamed_addr constant [34 x i8] c"Could not open stats file %s: %s\0A\00", align 1

; Function Attrs: inlinehint nounwind uwtable
define internal ptr @av_make_error_string(ptr noundef %0, i64 noundef %1, i32 noundef %2) #7 {
  %4 = alloca ptr, align 8
  %5 = alloca i64, align 8
  %6 = alloca i32, align 4
  store ptr %0, ptr %4, align 8, !tbaa !93
  store i64 %1, ptr %5, align 8, !tbaa !106
  store i32 %2, ptr %6, align 4, !tbaa !37
  %7 = load i32, ptr %6, align 4, !tbaa !37
  %8 = load ptr, ptr %4, align 8, !tbaa !93
  %9 = load i64, ptr %5, align 8, !tbaa !106
  %10 = call i32 @av_strerror(i32 noundef %7, ptr noundef %8, i64 noundef %9)
  %11 = load ptr, ptr %4, align 8, !tbaa !93
  ret ptr %11
}

; Function Attrs: cold nounwind optsize uwtable
define internal i32 @init(ptr noundef %0) #1 {
  %2 = alloca i32, align 4
  %3 = alloca ptr, align 8
  %4 = alloca ptr, align 8
  %5 = alloca i32, align 4
  %6 = alloca [64 x i8], align 1
  %7 = alloca i32, align 4
  store ptr %0, ptr %3, align 8, !tbaa !4
  call void @llvm.lifetime.start.p0(i64 8, ptr %4) #12
  %8 = load ptr, ptr %3, align 8, !tbaa !4
  %9 = getelementptr inbounds nuw %struct.AVFilterContext, ptr %8, i32 0, i32 9
  %10 = load ptr, ptr %9, align 8, !tbaa !9
  store ptr %10, ptr %4, align 8, !tbaa !22
  %11 = load ptr, ptr %4, align 8, !tbaa !22
  %12 = getelementptr inbounds nuw %struct.SSIMContext, ptr %11, i32 0, i32 3
  %13 = load ptr, ptr %12, align 8, !tbaa !24
  %14 = icmp ne ptr %13, null
  br i1 %14, label %15, label %50

15:                                               ; preds = %1
  %16 = load ptr, ptr %4, align 8, !tbaa !22
  %17 = getelementptr inbounds nuw %struct.SSIMContext, ptr %16, i32 0, i32 3
  %18 = load ptr, ptr %17, align 8, !tbaa !24
  %19 = call i32 @strcmp(ptr noundef %18, ptr noundef @.str.12) #13
  %20 = icmp ne i32 %19, 0
  br i1 %20, label %25, label %21

21:                                               ; preds = %15
  %22 = load ptr, ptr @stdout, align 8, !tbaa !35
  %23 = load ptr, ptr %4, align 8, !tbaa !22
  %24 = getelementptr inbounds nuw %struct.SSIMContext, ptr %23, i32 0, i32 2
  store ptr %22, ptr %24, align 8, !tbaa !36
  br label %49

25:                                               ; preds = %15
  %26 = load ptr, ptr %4, align 8, !tbaa !22
  %27 = getelementptr inbounds nuw %struct.SSIMContext, ptr %26, i32 0, i32 3
  %28 = load ptr, ptr %27, align 8, !tbaa !24
  %29 = call ptr @avpriv_fopen_utf8(ptr noundef %28, ptr noundef @.str.13)
  %30 = load ptr, ptr %4, align 8, !tbaa !22
  %31 = getelementptr inbounds nuw %struct.SSIMContext, ptr %30, i32 0, i32 2
  store ptr %29, ptr %31, align 8, !tbaa !36
  %32 = load ptr, ptr %4, align 8, !tbaa !22
  %33 = getelementptr inbounds nuw %struct.SSIMContext, ptr %32, i32 0, i32 2
  %34 = load ptr, ptr %33, align 8, !tbaa !36
  %35 = icmp ne ptr %34, null
  br i1 %35, label %48, label %36

36:                                               ; preds = %25
  call void @llvm.lifetime.start.p0(i64 4, ptr %5) #12
  %37 = call ptr @__errno_location() #14
  %38 = load i32, ptr %37, align 4, !tbaa !37
  %39 = sub nsw i32 0, %38
  store i32 %39, ptr %5, align 4, !tbaa !37
  %40 = load ptr, ptr %3, align 8, !tbaa !4
  %41 = load ptr, ptr %4, align 8, !tbaa !22
  %42 = getelementptr inbounds nuw %struct.SSIMContext, ptr %41, i32 0, i32 3
  %43 = load ptr, ptr %42, align 8, !tbaa !24
  call void @llvm.memset.p0.i64(ptr align 1 %6, i8 0, i64 64, i1 false)
  %44 = getelementptr inbounds [64 x i8], ptr %6, i64 0, i64 0
  %45 = load i32, ptr %5, align 4, !tbaa !37
  %46 = call ptr @av_make_error_string(ptr noundef %44, i64 noundef 64, i32 noundef %45)
  call void (ptr, i32, ptr, ...) @av_log(ptr noundef %40, i32 noundef 16, ptr noundef @.str.14, ptr noundef %43, ptr noundef %46)
  %47 = load i32, ptr %5, align 4, !tbaa !37
  store i32 %47, ptr %2, align 4
  store i32 1, ptr %7, align 4
  call void @llvm.lifetime.end.p0(i64 4, ptr %5) #12
  br label %54

48:                                               ; preds = %25
  br label %49

49:                                               ; preds = %48, %21
  br label %50

50:                                               ; preds = %49, %1
  %51 = load ptr, ptr %4, align 8, !tbaa !22
  %52 = getelementptr inbounds nuw %struct.SSIMContext, ptr %51, i32 0, i32 1
  %53 = getelementptr inbounds nuw %struct.FFFrameSync, ptr %52, i32 0, i32 5
  store ptr @do_ssim, ptr %53, align 8, !tbaa !38
  store i32 0, ptr %2, align 4
  store i32 1, ptr %7, align 4
  br label %54

54:                                               ; preds = %50, %36
  call void @llvm.lifetime.end.p0(i64 8, ptr %4) #12
  %55 = load i32, ptr %2, align 4
  ret i32 %55
}